; Function Attrs: nounwind uwtable
define dso_local ptr @PyObject_CallMethodObjArgs(ptr noundef %0, ptr noundef %1, ...) local_unnamed_addr #0 {
  %3 = alloca ptr, align 8
  %4 = alloca [1 x %struct.__va_list_tag], align 16
  %5 = tail call align 8 ptr @llvm.threadlocal.address.p0(ptr align 8 @_Py_tss_tstate)
  %6 = load ptr, ptr %5, align 8, !tbaa !25
  %7 = icmp eq ptr %0, null
  %8 = icmp eq ptr %1, null
  %or.cond = or i1 %7, %8
  br i1 %or.cond, label %9, label %14

9:                                                ; preds = %2
  %10 = getelementptr i8, ptr %6, i64 112
  %.val.i = load ptr, ptr %10, align 8, !tbaa !4
  %11 = icmp eq ptr %.val.i, null
  br i1 %11, label %_PyErr_Occurred.exit.thread.i, label %_PyErr_Occurred.exit.i

_PyErr_Occurred.exit.i:                           ; preds = %9
  %12 = getelementptr i8, ptr %.val.i, i64 8
  %.val.i.i = load ptr, ptr %12, align 8, !tbaa !20
  %.not.i13 = icmp eq ptr %.val.i.i, null
  br i1 %.not.i13, label %_PyErr_Occurred.exit.thread.i, label %null_error.exit

_PyErr_Occurred.exit.thread.i:                    ; preds = %_PyErr_Occurred.exit.i, %9
  %13 = load ptr, ptr @PyExc_SystemError, align 8, !tbaa !23
  tail call void @_PyErr_SetString(ptr noundef nonnull %6, ptr noundef %13, ptr noundef nonnull @.str.13) #10
  br label %null_error.exit

14:                                               ; preds = %2
  call void @llvm.lifetime.start.p0(i64 8, ptr nonnull %3) #10
  store ptr null, ptr %3, align 8, !tbaa !23
  %15 = call i32 @_PyObject_GetMethod(ptr noundef nonnull %0, ptr noundef nonnull %1, ptr noundef nonnull %3) #10
  %16 = load ptr, ptr %3, align 8, !tbaa !23
  %17 = icmp eq ptr %16, null
  br i1 %17, label %28, label %18

18:                                               ; preds = %14
  %.not = icmp eq i32 %15, 0
  %19 = select i1 %.not, ptr null, ptr %0
  call void @llvm.lifetime.start.p0(i64 24, ptr nonnull %4) #10
  call void @llvm.va_start.p0(ptr nonnull %4)
  %20 = load ptr, ptr %3, align 8, !tbaa !23
  %21 = call fastcc ptr @object_vacall(ptr noundef %6, ptr noundef %19, ptr noundef %20, ptr noundef %4)
  call void @llvm.va_end.p0(ptr nonnull %4)
  %22 = load ptr, ptr %3, align 8, !tbaa !23
  %23 = load i32, ptr %22, align 8, !tbaa !24
  %.not.i = icmp sgt i32 %23, -1
  br i1 %.not.i, label %24, label %Py_DECREF.exit

24:                                               ; preds = %18
  %25 = add nsw i32 %23, -1
  store i32 %25, ptr %22, align 8, !tbaa !24
  %26 = icmp eq i32 %25, 0
  br i1 %26, label %27, label %Py_DECREF.exit

27:                                               ; preds = %24
  call void @_Py_Dealloc(ptr noundef nonnull %22) #10
  br label %Py_DECREF.exit

Py_DECREF.exit:                                   ; preds = %18, %24, %27
  call void @llvm.lifetime.end.p0(i64 24, ptr nonnull %4) #10
  br label %28

28:                                               ; preds = %14, %Py_DECREF.exit
  %.1 = phi ptr [ %21, %Py_DECREF.exit ], [ null, %14 ]
  call void @llvm.lifetime.end.p0(i64 8, ptr nonnull %3) #10
  br label %null_error.exit

null_error.exit:                                  ; preds = %_PyErr_Occurred.exit.thread.i, %_PyErr_Occurred.exit.i, %28
  %.0 = phi ptr [ %.1, %28 ], [ null, %_PyErr_Occurred.exit.i ], [ null, %_PyErr_Occurred.exit.thread.i ]
  ret ptr %.0
}